; Function Attrs: mustprogress uwtable
define void @_ZNK6casadi13ImplicitToNlp8set_workEPvRPPKdRPPdRPxRS6_(ptr noundef nonnull align 8 dereferenceable(1608) %0, ptr noundef %1, ptr noundef nonnull align 8 dereferenceable(8) %2, ptr noundef nonnull align 8 dereferenceable(8) %3, ptr noundef nonnull align 8 dereferenceable(8) %4, ptr noundef nonnull align 8 dereferenceable(8) %5) unnamed_addr #4 align 2 {
  tail call void @_ZNK6casadi10Rootfinder8set_workEPvRPPKdRPPdRPxRS6_(ptr noundef nonnull align 8 dereferenceable(1600) %0, ptr noundef %1, ptr noundef nonnull align 8 dereferenceable(8) %2, ptr noundef nonnull align 8 dereferenceable(8) %3, ptr noundef nonnull align 8 dereferenceable(8) %4, ptr noundef nonnull align 8 dereferenceable(8) %5)
  %7 = load ptr, ptr %5, align 8, !tbaa !156
  %8 = getelementptr inbounds nuw i8, ptr %1, i64 176
  store ptr %7, ptr %8, align 8, !tbaa !158
  %9 = getelementptr inbounds nuw i8, ptr %0, i64 1536
  %10 = load i64, ptr %9, align 8, !tbaa !153
  %11 = getelementptr inbounds double, ptr %7, i64 %10
  store ptr %11, ptr %5, align 8, !tbaa !156
  %12 = getelementptr inbounds nuw i8, ptr %1, i64 184
  store ptr %11, ptr %12, align 8, !tbaa !176
  %13 = load ptr, ptr %5, align 8, !tbaa !156
  %14 = getelementptr inbounds double, ptr %13, i64 %10
  store ptr %14, ptr %5, align 8, !tbaa !156
  %15 = getelementptr inbounds nuw i8, ptr %1, i64 192
  store ptr %14, ptr %15, align 8, !tbaa !177
  %16 = getelementptr inbounds nuw i8, ptr %0, i64 1312
  %17 = tail call noundef i64 @_ZNK6casadi8Function6nnz_inEv(ptr noundef nonnull align 8 dereferenceable(8) %16)
  %18 = getelementptr inbounds nuw i8, ptr %0, i64 1584
  %19 = load i64, ptr %18, align 8, !tbaa !53
  %20 = getelementptr inbounds nuw i8, ptr %0, i64 272
  %21 = getelementptr inbounds nuw i8, ptr %0, i64 280
  %22 = load ptr, ptr %21, align 8, !tbaa !120
  %23 = load ptr, ptr %20, align 8, !tbaa !121
  %24 = ptrtoint ptr %22 to i64
  %25 = ptrtoint ptr %23 to i64
  %26 = sub i64 %24, %25
  %27 = ashr exact i64 %26, 3
  %.not.i.i.i.i = icmp ult i64 %19, %27
  br i1 %.not.i.i.i.i, label %_ZNK6casadi16FunctionInternal6nnz_inEx.exit, label %28

28:                                               ; preds = %6
  tail call void (ptr, ...) @_ZSt24__throw_out_of_range_fmtPKcz(ptr noundef nonnull @.str.25, i64 noundef %19, i64 noundef %27) #23
  unreachable

_ZNK6casadi16FunctionInternal6nnz_inEx.exit:      ; preds = %6
  %29 = getelementptr inbounds nuw %"class.casadi::Sparsity", ptr %23, i64 %19
  %30 = tail call noundef i64 @_ZNK6casadi8Sparsity3nnzEv(ptr noundef nonnull align 8 dereferenceable(8) %29)
  %31 = sub nsw i64 %17, %30
  %32 = load ptr, ptr %5, align 8, !tbaa !156
  %33 = getelementptr inbounds double, ptr %32, i64 %31
  store ptr %33, ptr %5, align 8, !tbaa !156
  %34 = getelementptr inbounds nuw i8, ptr %1, i64 200
  store ptr %33, ptr %34, align 8, !tbaa !178
  %35 = load i64, ptr %9, align 8, !tbaa !153
  %36 = load ptr, ptr %5, align 8, !tbaa !156
  %37 = getelementptr inbounds double, ptr %36, i64 %35
  store ptr %37, ptr %5, align 8, !tbaa !156
  ret void
}